target datalayout = "e-m:e-p270:32:32-p271:32:32-p272:64:64-i64:64-i128:128-f80:128-n8:16:32:64-S128"
target triple = "x86_64-pc-linux-gnu"

%struct.dirent = type { i64, i64, i16, i8, [256 x i8] }

@.str = private unnamed_addr constant [14 x i8] c"/proc/self/fd\00", align 1

; Function Attrs: nounwind uwtable
define internal i32 @isAsciiDigit(i8 noundef signext %0) #0 {
  %2 = alloca i8, align 1
  store i8 %0, ptr %2, align 1
  %3 = load i8, ptr %2, align 1
  %4 = sext i8 %3 to i32
  %5 = icmp sge i32 %4, 48
  br i1 %5, label %6, label %10

6:                                                ; preds = %1
  %7 = load i8, ptr %2, align 1
  %8 = sext i8 %7 to i32
  %9 = icmp sle i32 %8, 57
  br label %10

10:                                               ; preds = %6, %1
  %11 = phi i1 [ false, %1 ], [ %9, %6 ]
  %12 = zext i1 %11 to i32
  ret i32 %12
}

; Function Attrs: nounwind uwtable
define internal i32 @closeDescriptors() #0 {
  %1 = alloca i32, align 4
  %2 = alloca ptr, align 8
  %3 = alloca ptr, align 8
  %4 = alloca i32, align 4
  %5 = alloca i32, align 4
  store i32 4, ptr %4, align 4
  %6 = load i32, ptr %4, align 4
  %7 = call i32 @close(i32 noundef %6)
  %8 = load i32, ptr %4, align 4
  %9 = add nsw i32 %8, 1
  %10 = call i32 @close(i32 noundef %9)
  %11 = call ptr @opendir(ptr noundef @.str)
  store ptr %11, ptr %2, align 8
  %12 = icmp eq ptr %11, null
  br i1 %12, label %13, label %14

13:                                               ; preds = %0
  store i32 0, ptr %1, align 4
  br label %42

14:                                               ; preds = %0
  br label %15

15:                                               ; preds = %38, %14
  %16 = load ptr, ptr %2, align 8
  %17 = call ptr @readdir64(ptr noundef %16)
  store ptr %17, ptr %3, align 8
  %18 = icmp ne ptr %17, null
  br i1 %18, label %19, label %39

19:                                               ; preds = %15
  %20 = load ptr, ptr %3, align 8
  %21 = getelementptr inbounds %struct.dirent, ptr %20, i32 0, i32 4
  %22 = getelementptr inbounds [256 x i8], ptr %21, i64 0, i64 0
  %23 = load i8, ptr %22, align 1
  %24 = call i32 @isAsciiDigit(i8 noundef signext %23)
  %25 = icmp ne i32 %24, 0
  br i1 %25, label %26, label %38

26:                                               ; preds = %19
  %27 = load ptr, ptr %3, align 8
  %28 = getelementptr inbounds %struct.dirent, ptr %27, i32 0, i32 4
  %29 = getelementptr inbounds [256 x i8], ptr %28, i64 0, i64 0
  %30 = call i64 @strtol(ptr noundef %29, ptr noundef null, i32 noundef 10) #8
  %31 = trunc i64 %30 to i32
  store i32 %31, ptr %5, align 4
  %32 = load i32, ptr %4, align 4
  %33 = add nsw i32 %32, 2
  %34 = icmp sge i32 %31, %33
  br i1 %34, label %35, label %38

35:                                               ; preds = %26
  %36 = load i32, ptr %5, align 4
  %37 = call i32 @close(i32 noundef %36)
  br label %38

38:                                               ; preds = %35, %26, %19
  br label %15, !llvm.loop !11

39:                                               ; preds = %15
  %40 = load ptr, ptr %2, align 8
  %41 = call i32 @closedir(ptr noundef %40)
  store i32 1, ptr %1, align 4
  br label %42

42:                                               ; preds = %39, %13
  %43 = load i32, ptr %1, align 4
  ret i32 %43
}