; Function Attrs: nounwind uwtable
define internal fastcc range(i32 0, 2) i32 @closeDescriptors() unnamed_addr #0 {
  %1 = tail call i32 @close(i32 noundef 4) #14
  %2 = tail call i32 @close(i32 noundef 5) #14
  %3 = tail call ptr @opendir(ptr noundef nonnull @.str)
  %4 = icmp eq ptr %3, null
  br i1 %4, label %20, label %.preheader

.preheader:                                       ; preds = %0
  %5 = tail call ptr @readdir64(ptr noundef nonnull %3) #14
  %.not11 = icmp eq ptr %5, null
  br i1 %.not11, label %._crit_edge, label %.lr.ph

.lr.ph:                                           ; preds = %.preheader, %17
  %6 = phi ptr [ %18, %17 ], [ %5, %.preheader ]
  %7 = getelementptr inbounds i8, ptr %6, i64 19
  %8 = load i8, ptr %7, align 1
  %9 = add i8 %8, -58
  %10 = icmp ult i8 %9, -10
  br i1 %10, label %17, label %11

11:                                               ; preds = %.lr.ph
  %12 = tail call i64 @strtol(ptr nocapture noundef nonnull %7, ptr noundef null, i32 noundef 10) #14
  %13 = trunc i64 %12 to i32
  %14 = icmp sgt i32 %13, 5
  br i1 %14, label %15, label %17

15:                                               ; preds = %11
  %16 = tail call i32 @close(i32 noundef %13) #14
  br label %17

17:                                               ; preds = %15, %11, %.lr.ph
  %18 = tail call ptr @readdir64(ptr noundef nonnull %3) #14
  %.not = icmp eq ptr %18, null
  br i1 %.not, label %._crit_edge, label %.lr.ph, !llvm.loop !11

._crit_edge:                                      ; preds = %17, %.preheader
  %19 = tail call i32 @closedir(ptr noundef nonnull %3)
  br label %20

20:                                               ; preds = %0, %._crit_edge
  %.0 = phi i32 [ 1, %._crit_edge ], [ 0, %0 ]
  ret i32 %.0
}